
../m_elf/a-divuw:     file format elf64-littleriscv


Disassembly of section .text:

0000000080000000 <_start>:
    80000000:	00200193          	li	gp,2
    80000004:	01400093          	li	ra,20
    80000008:	00600113          	li	sp,6
    8000000c:	0220d73b          	divuw	a4,ra,sp
    80000010:	00300393          	li	t2,3
    80000014:	0c771a63          	bne	a4,t2,800000e8 <fail>

0000000080000018 <test_3>:
    80000018:	00300193          	li	gp,3
    8000001c:	0010009b          	addiw	ra,zero,1
    80000020:	02009093          	slli	ra,ra,0x20
    80000024:	fec08093          	addi	ra,ra,-20
    80000028:	00600113          	li	sp,6
    8000002c:	0220d73b          	divuw	a4,ra,sp
    80000030:	2aaab3b7          	lui	t2,0x2aaab
    80000034:	aa73839b          	addiw	t2,t2,-1369 # 2aaaaaa7 <_start-0x55555559>
    80000038:	0a771863          	bne	a4,t2,800000e8 <fail>

000000008000003c <test_4>:
    8000003c:	00400193          	li	gp,4
    80000040:	01400093          	li	ra,20
    80000044:	ffa00113          	li	sp,-6
    80000048:	0220d73b          	divuw	a4,ra,sp
    8000004c:	00000393          	li	t2,0
    80000050:	08771c63          	bne	a4,t2,800000e8 <fail>

0000000080000054 <test_5>:
    80000054:	00500193          	li	gp,5
    80000058:	fec00093          	li	ra,-20
    8000005c:	ffa00113          	li	sp,-6
    80000060:	0220d73b          	divuw	a4,ra,sp
    80000064:	00000393          	li	t2,0
    80000068:	08771063          	bne	a4,t2,800000e8 <fail>

000000008000006c <test_6>:
    8000006c:	00600193          	li	gp,6
    80000070:	800000b7          	lui	ra,0x80000
    80000074:	00100113          	li	sp,1
    80000078:	0220d73b          	divuw	a4,ra,sp
    8000007c:	800003b7          	lui	t2,0x80000
    80000080:	06771463          	bne	a4,t2,800000e8 <fail>

0000000080000084 <test_7>:
    80000084:	00700193          	li	gp,7
    80000088:	800000b7          	lui	ra,0x80000
    8000008c:	fff00113          	li	sp,-1
    80000090:	0220d73b          	divuw	a4,ra,sp
    80000094:	00000393          	li	t2,0
    80000098:	04771863          	bne	a4,t2,800000e8 <fail>

000000008000009c <test_8>:
    8000009c:	00800193          	li	gp,8
    800000a0:	800000b7          	lui	ra,0x80000
    800000a4:	00000113          	li	sp,0
    800000a8:	0220d73b          	divuw	a4,ra,sp
    800000ac:	fff00393          	li	t2,-1
    800000b0:	02771c63          	bne	a4,t2,800000e8 <fail>

00000000800000b4 <test_9>:
    800000b4:	00900193          	li	gp,9
    800000b8:	00100093          	li	ra,1
    800000bc:	00000113          	li	sp,0
    800000c0:	0220d73b          	divuw	a4,ra,sp
    800000c4:	fff00393          	li	t2,-1
    800000c8:	02771063          	bne	a4,t2,800000e8 <fail>

00000000800000cc <test_10>:
    800000cc:	00a00193          	li	gp,10
    800000d0:	00000093          	li	ra,0
    800000d4:	00000113          	li	sp,0
    800000d8:	0220d73b          	divuw	a4,ra,sp
    800000dc:	fff00393          	li	t2,-1
    800000e0:	00771463          	bne	a4,t2,800000e8 <fail>
    800000e4:	00301a63          	bne	zero,gp,800000f8 <pass>

00000000800000e8 <fail>:
    800000e8:	00119513          	slli	a0,gp,0x1
    800000ec:	00050063          	beqz	a0,800000ec <fail+0x4>
    800000f0:	00156513          	ori	a0,a0,1
    800000f4:	fea00fa3          	sb	a0,-1(zero)

00000000800000f8 <pass>:
    800000f8:	00100513          	li	a0,1
    800000fc:	fea00fa3          	sb	a0,-1(zero)
    80000100:	c0001073          	unimp
